target datalayout = "e-m:e-p270:32:32-p271:32:32-p272:64:64-i64:64-i128:128-f80:128-n8:16:32:64-S128"
target triple = "x86_64-unknown-linux-gnu"

%struct.QTailQLink = type { ptr, ptr }
%struct.BlockDriverState = type { i32, i8, i8, i8, i8, i8, ptr, ptr, ptr, %struct.anon.0, i8, [4096 x i8], [4096 x i8], [4096 x i8], [16 x i8], ptr, [4096 x i8], %struct.BlockLimits, i32, i32, i32, i32, [32 x i8], %union.anon.1, %union.anon.2, %union.anon.3, i32, [16 x %struct.anon.4], ptr, %struct.anon.5, ptr, ptr, %struct.anon.6, ptr, ptr, i32, ptr, i64, i64, %struct.QemuMutex, %struct.anon.7, %struct.Stat64, i32, i32, i32, i32, i32, i32, %struct.QemuMutex, %struct.anon.8, %struct.CoQueue, i8, i32, i8, %struct.CoMutex, ptr, ptr }
%struct.anon.0 = type { ptr }
%struct.BlockLimits = type { i32, i64, i32, i64, i32, i32, i32, i64, i32, i64, i64, i32, i8, i32, i32, i32, i32, i32, i32, i32 }
%union.anon.1 = type { %struct.QTailQLink }
%union.anon.2 = type { %struct.QTailQLink }
%union.anon.3 = type { %struct.QTailQLink }
%struct.anon.4 = type { ptr }
%struct.anon.5 = type { ptr }
%struct.anon.6 = type { ptr }
%struct.anon.7 = type { ptr }
%struct.Stat64 = type { i64 }
%struct.QemuMutex = type { %union.pthread_mutex_t, i8 }
%union.pthread_mutex_t = type { %struct.__pthread_mutex_s }
%struct.__pthread_mutex_s = type { i32, i32, i32, i32, i32, i16, i16, %struct.__pthread_internal_list }
%struct.__pthread_internal_list = type { ptr, ptr }
%struct.anon.8 = type { ptr }
%struct.CoQueue = type { %struct.anon.9 }
%struct.anon.9 = type { ptr, ptr }
%struct.CoMutex = type { i32, ptr, %struct.anon.10, %struct.anon.10, i32, i32, ptr }
%struct.anon.10 = type { ptr }
%struct.BDRVVmdkState = type { %struct.CoMutex, i64, i8, i8, i32, i32, i32, ptr, ptr, ptr }
%struct.VmdkExtent = type { ptr, i8, i8, i8, i8, i8, i64, i64, i32, i32, i64, i64, i64, i64, i64, ptr, ptr, i32, i32, i32, ptr, [16 x i32], [16 x i32], i64, i64, ptr }
%struct.BdrvChild = type { ptr, ptr, ptr, i32, ptr, i64, i64, i8, i8, %struct.anon.11, %struct.anon.12 }
%struct.anon.11 = type { ptr, ptr }
%struct.anon.12 = type { ptr, ptr }

; Function Attrs: nounwind sspstrong uwtable
define internal i64 @vmdk_co_get_allocated_file_size(ptr noundef %bs) #0 {
entry:
  %retval = alloca i64, align 8
  %bs.addr = alloca ptr, align 8
  %i = alloca i32, align 4
  %ret = alloca i64, align 8
  %r = alloca i64, align 8
  %s = alloca ptr, align 8
  store ptr %bs, ptr %bs.addr, align 8
  store i64 0, ptr %ret, align 8
  %0 = load ptr, ptr %bs.addr, align 8
  %opaque = getelementptr inbounds %struct.BlockDriverState, ptr %0, i32 0, i32 7
  %1 = load ptr, ptr %opaque, align 8
  store ptr %1, ptr %s, align 8
  %2 = load ptr, ptr %bs.addr, align 8
  %file = getelementptr inbounds %struct.BlockDriverState, ptr %2, i32 0, i32 31
  %3 = load ptr, ptr %file, align 8
  %bs1 = getelementptr inbounds %struct.BdrvChild, ptr %3, i32 0, i32 0
  %4 = load ptr, ptr %bs1, align 8
  %call = call i64 @bdrv_co_get_allocated_file_size(ptr noundef %4)
  store i64 %call, ptr %ret, align 8
  %5 = load i64, ptr %ret, align 8
  %cmp = icmp slt i64 %5, 0
  br i1 %cmp, label %if.then, label %if.end

if.then:                                          ; preds = %entry
  %6 = load i64, ptr %ret, align 8
  store i64 %6, ptr %retval, align 8
  br label %return

if.end:                                           ; preds = %entry
  store i32 0, ptr %i, align 4
  br label %for.cond

for.cond:                                         ; preds = %for.inc, %if.end
  %7 = load i32, ptr %i, align 4
  %8 = load ptr, ptr %s, align 8
  %num_extents = getelementptr inbounds %struct.BDRVVmdkState, ptr %8, i32 0, i32 6
  %9 = load i32, ptr %num_extents, align 4
  %cmp2 = icmp slt i32 %7, %9
  br i1 %cmp2, label %for.body, label %for.end

for.body:                                         ; preds = %for.cond
  %10 = load ptr, ptr %s, align 8
  %extents = getelementptr inbounds %struct.BDRVVmdkState, ptr %10, i32 0, i32 7
  %11 = load ptr, ptr %extents, align 8
  %12 = load i32, ptr %i, align 4
  %idxprom = sext i32 %12 to i64
  %arrayidx = getelementptr %struct.VmdkExtent, ptr %11, i64 %idxprom
  %file3 = getelementptr inbounds %struct.VmdkExtent, ptr %arrayidx, i32 0, i32 0
  %13 = load ptr, ptr %file3, align 8
  %14 = load ptr, ptr %bs.addr, align 8
  %file4 = getelementptr inbounds %struct.BlockDriverState, ptr %14, i32 0, i32 31
  %15 = load ptr, ptr %file4, align 8
  %cmp5 = icmp eq ptr %13, %15
  br i1 %cmp5, label %if.then6, label %if.end7

if.then6:                                         ; preds = %for.body
  br label %for.inc

if.end7:                                          ; preds = %for.body
  %16 = load ptr, ptr %s, align 8
  %extents8 = getelementptr inbounds %struct.BDRVVmdkState, ptr %16, i32 0, i32 7
  %17 = load ptr, ptr %extents8, align 8
  %18 = load i32, ptr %i, align 4
  %idxprom9 = sext i32 %18 to i64
  %arrayidx10 = getelementptr %struct.VmdkExtent, ptr %17, i64 %idxprom9
  %file11 = getelementptr inbounds %struct.VmdkExtent, ptr %arrayidx10, i32 0, i32 0
  %19 = load ptr, ptr %file11, align 8
  %bs12 = getelementptr inbounds %struct.BdrvChild, ptr %19, i32 0, i32 0
  %20 = load ptr, ptr %bs12, align 8
  %call13 = call i64 @bdrv_co_get_allocated_file_size(ptr noundef %20)
  store i64 %call13, ptr %r, align 8
  %21 = load i64, ptr %r, align 8
  %cmp14 = icmp slt i64 %21, 0
  br i1 %cmp14, label %if.then15, label %if.end16

if.then15:                                        ; preds = %if.end7
  %22 = load i64, ptr %r, align 8
  store i64 %22, ptr %retval, align 8
  br label %return

if.end16:                                         ; preds = %if.end7
  %23 = load i64, ptr %r, align 8
  %24 = load i64, ptr %ret, align 8
  %add = add i64 %24, %23
  store i64 %add, ptr %ret, align 8
  br label %for.inc

for.inc:                                          ; preds = %if.end16, %if.then6
  %25 = load i32, ptr %i, align 4
  %inc = add i32 %25, 1
  store i32 %inc, ptr %i, align 4
  br label %for.cond, !llvm.loop !14

for.end:                                          ; preds = %for.cond
  %26 = load i64, ptr %ret, align 8
  store i64 %26, ptr %retval, align 8
  br label %return

return:                                           ; preds = %for.end, %if.then15, %if.then
  %27 = load i64, ptr %retval, align 8
  ret i64 %27
}