; Function Attrs: nounwind sspstrong uwtable
define internal i64 @vmdk_co_get_allocated_file_size(ptr noundef readonly captures(none) %bs) #0 {
entry:
  %opaque = getelementptr inbounds nuw i8, ptr %bs, i64 24
  %0 = load ptr, ptr %opaque, align 8
  %file = getelementptr inbounds nuw i8, ptr %bs, i64 16840
  %1 = load ptr, ptr %file, align 8
  %2 = load ptr, ptr %1, align 8
  %call = tail call i64 @bdrv_co_get_allocated_file_size(ptr noundef %2) #15
  %cmp = icmp slt i64 %call, 0
  br i1 %cmp, label %return, label %for.cond.preheader

for.cond.preheader:                               ; preds = %entry
  %num_extents = getelementptr inbounds nuw i8, ptr %0, i64 68
  %3 = load i32, ptr %num_extents, align 4
  %cmp213 = icmp sgt i32 %3, 0
  br i1 %cmp213, label %for.body.lr.ph, label %return

for.body.lr.ph:                                   ; preds = %for.cond.preheader
  %extents = getelementptr inbounds nuw i8, ptr %0, i64 72
  br label %for.body

for.body:                                         ; preds = %for.body.lr.ph, %for.inc
  %4 = phi i32 [ %3, %for.body.lr.ph ], [ %9, %for.inc ]
  %indvars.iv = phi i64 [ 0, %for.body.lr.ph ], [ %indvars.iv.next, %for.inc ]
  %ret.014 = phi i64 [ %call, %for.body.lr.ph ], [ %ret.1, %for.inc ]
  %5 = load ptr, ptr %extents, align 8
  %arrayidx = getelementptr %struct.VmdkExtent, ptr %5, i64 %indvars.iv
  %6 = load ptr, ptr %arrayidx, align 8
  %7 = load ptr, ptr %file, align 8
  %cmp5 = icmp eq ptr %6, %7
  br i1 %cmp5, label %for.inc, label %if.end7

if.end7:                                          ; preds = %for.body
  %8 = load ptr, ptr %6, align 8
  %call13 = tail call i64 @bdrv_co_get_allocated_file_size(ptr noundef %8) #15
  %cmp14 = icmp slt i64 %call13, 0
  br i1 %cmp14, label %return, label %if.end16

if.end16:                                         ; preds = %if.end7
  %add = add i64 %call13, %ret.014
  %.pre = load i32, ptr %num_extents, align 4
  br label %for.inc

for.inc:                                          ; preds = %for.body, %if.end16
  %9 = phi i32 [ %4, %for.body ], [ %.pre, %if.end16 ]
  %ret.1 = phi i64 [ %ret.014, %for.body ], [ %add, %if.end16 ]
  %indvars.iv.next = add nuw nsw i64 %indvars.iv, 1
  %10 = sext i32 %9 to i64
  %cmp2 = icmp slt i64 %indvars.iv.next, %10
  br i1 %cmp2, label %for.body, label %return, !llvm.loop !15

return:                                           ; preds = %if.end7, %for.inc, %for.cond.preheader, %entry
  %retval.0 = phi i64 [ %call, %entry ], [ %call, %for.cond.preheader ], [ %call13, %if.end7 ], [ %ret.1, %for.inc ]
  ret i64 %retval.0
}